target datalayout = "e-m:e-p270:32:32-p271:32:32-p272:64:64-i64:64-i128:128-f80:128-n8:16:32:64-S128"
target triple = "x86_64-pc-linux-gnu"

%struct.decoration = type { ptr, i32, i32, ptr }
%struct.name_decoration = type { ptr, i32, [0 x i8] }
%struct.object_id = type { [32 x i8], i32 }
%struct.object = type { i32, %struct.object_id }
%struct.commit_graft = type { %struct.object_id, i32, [0 x %struct.object_id] }
%struct.commit = type { %struct.object, i64, ptr, ptr, i32 }

@name_decoration = internal global %struct.decoration { ptr @.str.41, i32 0, i32 0, ptr null }, align 8
@the_repository = external global ptr, align 8
@.str.38 = private unnamed_addr constant [8 x i8] c"grafted\00", align 1
@.str.40 = private unnamed_addr constant [27 x i8] c"size_t overflow: %lu + %lu\00", align 1

; Function Attrs: inlinehint nounwind uwtable
define internal i64 @st_add(i64 noundef %0, i64 noundef %1) #2 {
  %3 = alloca i64, align 8
  %4 = alloca i64, align 8
  store i64 %0, ptr %3, align 8, !tbaa !11
  store i64 %1, ptr %4, align 8, !tbaa !11
  %5 = load i64, ptr %4, align 8, !tbaa !11
  %6 = load i64, ptr %3, align 8, !tbaa !11
  %7 = sub i64 -1, %6
  %8 = icmp ugt i64 %5, %7
  br i1 %8, label %9, label %12

9:                                                ; preds = %2
  %10 = load i64, ptr %3, align 8, !tbaa !11
  %11 = load i64, ptr %4, align 8, !tbaa !11
  call void (ptr, ...) @die(ptr noundef @.str.40, i64 noundef %10, i64 noundef %11) #12
  unreachable

12:                                               ; preds = %2
  %13 = load i64, ptr %3, align 8, !tbaa !11
  %14 = load i64, ptr %4, align 8, !tbaa !11
  %15 = add i64 %13, %14
  ret i64 %15
}

; Function Attrs: nounwind uwtable
define dso_local void @add_name_decoration(i32 noundef %0, ptr noundef %1, ptr noundef %2) #0 {
  %4 = alloca i32, align 4
  %5 = alloca ptr, align 8
  %6 = alloca ptr, align 8
  %7 = alloca ptr, align 8
  %8 = alloca i64, align 8
  store i32 %0, ptr %4, align 4, !tbaa !15
  store ptr %1, ptr %5, align 8, !tbaa !9
  store ptr %2, ptr %6, align 8, !tbaa !17
  call void @llvm.lifetime.start.p0(i64 8, ptr %7) #10
  br label %9

9:                                                ; preds = %3
  call void @llvm.lifetime.start.p0(i64 8, ptr %8) #10
  %10 = load ptr, ptr %5, align 8, !tbaa !9
  %11 = call i64 @strlen(ptr noundef %10) #11
  store i64 %11, ptr %8, align 8, !tbaa !11
  %12 = load i64, ptr %8, align 8, !tbaa !11
  %13 = call i64 @st_add(i64 noundef 16, i64 noundef %12)
  %14 = call i64 @st_add(i64 noundef %13, i64 noundef 1)
  %15 = call ptr @xcalloc(i64 noundef 1, i64 noundef %14)
  store ptr %15, ptr %7, align 8, !tbaa !19
  %16 = load ptr, ptr %7, align 8, !tbaa !19
  %17 = getelementptr inbounds nuw %struct.name_decoration, ptr %16, i32 0, i32 2
  %18 = getelementptr inbounds [0 x i8], ptr %17, i64 0, i64 0
  %19 = load ptr, ptr %5, align 8, !tbaa !9
  %20 = load i64, ptr %8, align 8, !tbaa !11
  call void @llvm.memcpy.p0.p0.i64(ptr align 4 %18, ptr align 1 %19, i64 %20, i1 false)
  call void @llvm.lifetime.end.p0(i64 8, ptr %8) #10
  br label %21

21:                                               ; preds = %9
  br label %22

22:                                               ; preds = %21
  %23 = load i32, ptr %4, align 4, !tbaa !15
  %24 = load ptr, ptr %7, align 8, !tbaa !19
  %25 = getelementptr inbounds nuw %struct.name_decoration, ptr %24, i32 0, i32 1
  store i32 %23, ptr %25, align 8, !tbaa !15
  %26 = load ptr, ptr %6, align 8, !tbaa !17
  %27 = load ptr, ptr %7, align 8, !tbaa !19
  %28 = call ptr @add_decoration(ptr noundef @name_decoration, ptr noundef %26, ptr noundef %27)
  %29 = load ptr, ptr %7, align 8, !tbaa !19
  %30 = getelementptr inbounds nuw %struct.name_decoration, ptr %29, i32 0, i32 0
  store ptr %28, ptr %30, align 8, !tbaa !19
  call void @llvm.lifetime.end.p0(i64 8, ptr %7) #10
  ret void
}

; Function Attrs: nounwind uwtable
define internal i32 @add_graft_decoration(ptr noundef %0, ptr noundef %1) #0 {
  %3 = alloca i32, align 4
  %4 = alloca ptr, align 8
  %5 = alloca ptr, align 8
  %6 = alloca ptr, align 8
  %7 = alloca i32, align 4
  store ptr %0, ptr %4, align 8, !tbaa !53
  store ptr %1, ptr %5, align 8, !tbaa !41
  call void @llvm.lifetime.start.p0(i64 8, ptr %6) #10
  %8 = load ptr, ptr @the_repository, align 8, !tbaa !37
  %9 = load ptr, ptr %4, align 8, !tbaa !53
  %10 = getelementptr inbounds nuw %struct.commit_graft, ptr %9, i32 0, i32 0
  %11 = call ptr @lookup_commit(ptr noundef %8, ptr noundef %10)
  store ptr %11, ptr %6, align 8, !tbaa !55
  %12 = load ptr, ptr %6, align 8, !tbaa !55
  %13 = icmp ne ptr %12, null
  br i1 %13, label %15, label %14

14:                                               ; preds = %2
  store i32 0, ptr %3, align 4
  store i32 1, ptr %7, align 4
  br label %18

15:                                               ; preds = %2
  %16 = load ptr, ptr %6, align 8, !tbaa !55
  %17 = getelementptr inbounds nuw %struct.commit, ptr %16, i32 0, i32 0
  call void @add_name_decoration(i32 noundef 6, ptr noundef @.str.38, ptr noundef %17)
  store i32 0, ptr %3, align 4
  store i32 1, ptr %7, align 4
  br label %18

18:                                               ; preds = %15, %14
  call void @llvm.lifetime.end.p0(i64 8, ptr %6) #10
  %19 = load i32, ptr %3, align 4
  ret i32 %19
}