; Function Attrs: nounwind uwtable
define internal noundef i32 @add_graft_decoration(ptr noundef %0, ptr readnone captures(none) %1) #0 {
  %3 = load ptr, ptr @the_repository, align 8, !tbaa !15
  %4 = tail call ptr @lookup_commit(ptr noundef %3, ptr noundef %0) #15
  %.not = icmp eq ptr %4, null
  br i1 %.not, label %9, label %add_name_decoration.exit

add_name_decoration.exit:                         ; preds = %2
  %5 = tail call ptr @xcalloc(i64 noundef 1, i64 noundef 24) #15
  %6 = getelementptr inbounds nuw i8, ptr %5, i64 12
  tail call void @llvm.memcpy.p0.p0.i64(ptr noundef nonnull align 4 dereferenceable(7) %6, ptr noundef nonnull align 1 dereferenceable(7) @.str.38, i64 7, i1 false)
  %7 = getelementptr inbounds nuw i8, ptr %5, i64 8
  store i32 6, ptr %7, align 8, !tbaa !11
  %8 = tail call ptr @add_decoration(ptr noundef nonnull @name_decoration, ptr noundef nonnull %4, ptr noundef %5) #15
  store ptr %8, ptr %5, align 8, !tbaa !13
  br label %9

9:                                                ; preds = %2, %add_name_decoration.exit
  ret i32 0
}